target datalayout = "e-m:e-p270:32:32-p271:32:32-p272:64:64-i64:64-i128:128-f80:128-n8:16:32:64-S128"
target triple = "x86_64-pc-linux-gnu"

%struct.FunctionCallInfoBaseData = type { ptr, ptr, ptr, i32, i8, i16, [0 x %struct.NullableDatum] }
%struct.NullableDatum = type { i64, i8 }
%struct.pg_re_flags = type { i32, i8 }
%struct.regexp_matches_ctx = type { ptr, i32, i32, ptr, i32, ptr, ptr, ptr, ptr, i32 }

@.str.3 = private unnamed_addr constant [9 x i8] c"regexp.c\00", align 1
@.str.6 = private unnamed_addr constant [37 x i8] c"invalid value for parameter \22%s\22: %d\00", align 1
@.str.7 = private unnamed_addr constant [6 x i8] c"start\00", align 1
@.str.8 = private unnamed_addr constant [2 x i8] c"n\00", align 1
@.str.9 = private unnamed_addr constant [40 x i8] c"%s does not support the \22global\22 option\00", align 1
@.str.12 = private unnamed_addr constant [8 x i8] c"subexpr\00", align 1
@__func__.regexp_substr = private unnamed_addr constant [14 x i8] c"regexp_substr\00", align 1
@.str.19 = private unnamed_addr constant [16 x i8] c"regexp_substr()\00", align 1

; Function Attrs: inlinehint nounwind uwtable
define internal i64 @Int32GetDatum(i32 noundef %0) #6 {
  %2 = alloca i32, align 4
  store i32 %0, ptr %2, align 4
  %3 = load i32, ptr %2, align 4
  %4 = sext i32 %3 to i64
  ret i64 %4
}

; Function Attrs: inlinehint nounwind uwtable
define internal i64 @PointerGetDatum(ptr noundef %0) #6 {
  %2 = alloca ptr, align 8
  store ptr %0, ptr %2, align 8
  %3 = load ptr, ptr %2, align 8
  %4 = ptrtoint ptr %3 to i64
  ret i64 %4
}

; Function Attrs: inlinehint nounwind uwtable
define internal i32 @DatumGetInt32(i64 noundef %0) #6 {
  %2 = alloca i64, align 8
  store i64 %0, ptr %2, align 8
  %3 = load i64, ptr %2, align 8
  %4 = trunc i64 %3 to i32
  ret i32 %4
}

; Function Attrs: inlinehint nounwind uwtable
define internal ptr @DatumGetPointer(i64 noundef %0) #6 {
  %2 = alloca i64, align 8
  store i64 %0, ptr %2, align 8
  %3 = load i64, ptr %2, align 8
  %4 = inttoptr i64 %3 to ptr
  ret ptr %4
}

; Function Attrs: nounwind uwtable
define dso_local i64 @regexp_substr(ptr noundef %0) #0 {
  %2 = alloca i64, align 8
  %3 = alloca ptr, align 8
  %4 = alloca ptr, align 8
  %5 = alloca ptr, align 8
  %6 = alloca i32, align 4
  %7 = alloca i32, align 4
  %8 = alloca ptr, align 8
  %9 = alloca i32, align 4
  %10 = alloca i32, align 4
  %11 = alloca i32, align 4
  %12 = alloca i32, align 4
  %13 = alloca %struct.pg_re_flags, align 4
  %14 = alloca ptr, align 8
  %15 = alloca i32, align 4
  store ptr %0, ptr %3, align 8
  call void @llvm.lifetime.start.p0(i64 8, ptr %4) #8
  %16 = load ptr, ptr %3, align 8
  %17 = getelementptr inbounds nuw %struct.FunctionCallInfoBaseData, ptr %16, i32 0, i32 6
  %18 = getelementptr inbounds [0 x %struct.NullableDatum], ptr %17, i64 0, i64 0
  %19 = getelementptr inbounds nuw %struct.NullableDatum, ptr %18, i32 0, i32 0
  %20 = load i64, ptr %19, align 8
  %21 = call ptr @DatumGetPointer(i64 noundef %20)
  %22 = call ptr @pg_detoast_datum_packed(ptr noundef %21)
  store ptr %22, ptr %4, align 8
  call void @llvm.lifetime.start.p0(i64 8, ptr %5) #8
  %23 = load ptr, ptr %3, align 8
  %24 = getelementptr inbounds nuw %struct.FunctionCallInfoBaseData, ptr %23, i32 0, i32 6
  %25 = getelementptr inbounds [0 x %struct.NullableDatum], ptr %24, i64 0, i64 1
  %26 = getelementptr inbounds nuw %struct.NullableDatum, ptr %25, i32 0, i32 0
  %27 = load i64, ptr %26, align 8
  %28 = call ptr @DatumGetPointer(i64 noundef %27)
  %29 = call ptr @pg_detoast_datum_packed(ptr noundef %28)
  store ptr %29, ptr %5, align 8
  call void @llvm.lifetime.start.p0(i64 4, ptr %6) #8
  store i32 1, ptr %6, align 4
  call void @llvm.lifetime.start.p0(i64 4, ptr %7) #8
  store i32 1, ptr %7, align 4
  call void @llvm.lifetime.start.p0(i64 8, ptr %8) #8
  %30 = load ptr, ptr %3, align 8
  %31 = getelementptr inbounds nuw %struct.FunctionCallInfoBaseData, ptr %30, i32 0, i32 5
  %32 = load i16, ptr %31, align 2
  %33 = sext i16 %32 to i32
  %34 = icmp sgt i32 %33, 4
  br i1 %34, label %35, label %43

35:                                               ; preds = %1
  %36 = load ptr, ptr %3, align 8
  %37 = getelementptr inbounds nuw %struct.FunctionCallInfoBaseData, ptr %36, i32 0, i32 6
  %38 = getelementptr inbounds [0 x %struct.NullableDatum], ptr %37, i64 0, i64 4
  %39 = getelementptr inbounds nuw %struct.NullableDatum, ptr %38, i32 0, i32 0
  %40 = load i64, ptr %39, align 8
  %41 = call ptr @DatumGetPointer(i64 noundef %40)
  %42 = call ptr @pg_detoast_datum_packed(ptr noundef %41)
  br label %44

43:                                               ; preds = %1
  br label %44

44:                                               ; preds = %43, %35
  %45 = phi ptr [ %42, %35 ], [ null, %43 ]
  store ptr %45, ptr %8, align 8
  call void @llvm.lifetime.start.p0(i64 4, ptr %9) #8
  store i32 0, ptr %9, align 4
  call void @llvm.lifetime.start.p0(i64 4, ptr %10) #8
  call void @llvm.lifetime.start.p0(i64 4, ptr %11) #8
  call void @llvm.lifetime.start.p0(i64 4, ptr %12) #8
  call void @llvm.lifetime.start.p0(i64 8, ptr %13) #8
  call void @llvm.lifetime.start.p0(i64 8, ptr %14) #8
  %46 = load ptr, ptr %3, align 8
  %47 = getelementptr inbounds nuw %struct.FunctionCallInfoBaseData, ptr %46, i32 0, i32 5
  %48 = load i16, ptr %47, align 2
  %49 = sext i16 %48 to i32
  %50 = icmp sgt i32 %49, 2
  br i1 %50, label %51, label %74

51:                                               ; preds = %44
  %52 = load ptr, ptr %3, align 8
  %53 = getelementptr inbounds nuw %struct.FunctionCallInfoBaseData, ptr %52, i32 0, i32 6
  %54 = getelementptr inbounds [0 x %struct.NullableDatum], ptr %53, i64 0, i64 2
  %55 = getelementptr inbounds nuw %struct.NullableDatum, ptr %54, i32 0, i32 0
  %56 = load i64, ptr %55, align 8
  %57 = call i32 @DatumGetInt32(i64 noundef %56)
  store i32 %57, ptr %6, align 4
  %58 = load i32, ptr %6, align 4
  %59 = icmp sle i32 %58, 0
  br i1 %59, label %60, label %73

60:                                               ; preds = %51
  br label %61

61:                                               ; preds = %60
  br i1 true, label %62, label %64

62:                                               ; preds = %61
  %63 = call zeroext i1 @errstart_cold(i32 noundef 21, ptr noundef null) #10
  br i1 %63, label %66, label %70

64:                                               ; preds = %61
  %65 = call zeroext i1 @errstart(i32 noundef 21, ptr noundef null)
  br i1 %65, label %66, label %70

66:                                               ; preds = %64, %62
  %67 = call i32 @errcode(i32 noundef 50856066)
  %68 = load i32, ptr %6, align 4
  %69 = call i32 (ptr, ...) @errmsg(ptr noundef @.str.6, ptr noundef @.str.7, i32 noundef %68)
  call void @errfinish(ptr noundef @.str.3, i32 noundef 1854, ptr noundef @__func__.regexp_substr)
  br label %70

70:                                               ; preds = %66, %64, %62
  unreachable

71:                                               ; No predecessors!
  br label %72

72:                                               ; preds = %71
  br label %73

73:                                               ; preds = %72, %51
  br label %74

74:                                               ; preds = %73, %44
  %75 = load ptr, ptr %3, align 8
  %76 = getelementptr inbounds nuw %struct.FunctionCallInfoBaseData, ptr %75, i32 0, i32 5
  %77 = load i16, ptr %76, align 2
  %78 = sext i16 %77 to i32
  %79 = icmp sgt i32 %78, 3
  br i1 %79, label %80, label %103

80:                                               ; preds = %74
  %81 = load ptr, ptr %3, align 8
  %82 = getelementptr inbounds nuw %struct.FunctionCallInfoBaseData, ptr %81, i32 0, i32 6
  %83 = getelementptr inbounds [0 x %struct.NullableDatum], ptr %82, i64 0, i64 3
  %84 = getelementptr inbounds nuw %struct.NullableDatum, ptr %83, i32 0, i32 0
  %85 = load i64, ptr %84, align 8
  %86 = call i32 @DatumGetInt32(i64 noundef %85)
  store i32 %86, ptr %7, align 4
  %87 = load i32, ptr %7, align 4
  %88 = icmp sle i32 %87, 0
  br i1 %88, label %89, label %102

89:                                               ; preds = %80
  br label %90

90:                                               ; preds = %89
  br i1 true, label %91, label %93

91:                                               ; preds = %90
  %92 = call zeroext i1 @errstart_cold(i32 noundef 21, ptr noundef null) #10
  br i1 %92, label %95, label %99

93:                                               ; preds = %90
  %94 = call zeroext i1 @errstart(i32 noundef 21, ptr noundef null)
  br i1 %94, label %95, label %99

95:                                               ; preds = %93, %91
  %96 = call i32 @errcode(i32 noundef 50856066)
  %97 = load i32, ptr %7, align 4
  %98 = call i32 (ptr, ...) @errmsg(ptr noundef @.str.6, ptr noundef @.str.8, i32 noundef %97)
  call void @errfinish(ptr noundef @.str.3, i32 noundef 1863, ptr noundef @__func__.regexp_substr)
  br label %99

99:                                               ; preds = %95, %93, %91
  unreachable

100:                                              ; No predecessors!
  br label %101

101:                                              ; preds = %100
  br label %102

102:                                              ; preds = %101, %80
  br label %103

103:                                              ; preds = %102, %74
  %104 = load ptr, ptr %3, align 8
  %105 = getelementptr inbounds nuw %struct.FunctionCallInfoBaseData, ptr %104, i32 0, i32 5
  %106 = load i16, ptr %105, align 2
  %107 = sext i16 %106 to i32
  %108 = icmp sgt i32 %107, 5
  br i1 %108, label %109, label %132

109:                                              ; preds = %103
  %110 = load ptr, ptr %3, align 8
  %111 = getelementptr inbounds nuw %struct.FunctionCallInfoBaseData, ptr %110, i32 0, i32 6
  %112 = getelementptr inbounds [0 x %struct.NullableDatum], ptr %111, i64 0, i64 5
  %113 = getelementptr inbounds nuw %struct.NullableDatum, ptr %112, i32 0, i32 0
  %114 = load i64, ptr %113, align 8
  %115 = call i32 @DatumGetInt32(i64 noundef %114)
  store i32 %115, ptr %9, align 4
  %116 = load i32, ptr %9, align 4
  %117 = icmp slt i32 %116, 0
  br i1 %117, label %118, label %131

118:                                              ; preds = %109
  br label %119

119:                                              ; preds = %118
  br i1 true, label %120, label %122

120:                                              ; preds = %119
  %121 = call zeroext i1 @errstart_cold(i32 noundef 21, ptr noundef null) #10
  br i1 %121, label %124, label %128

122:                                              ; preds = %119
  %123 = call zeroext i1 @errstart(i32 noundef 21, ptr noundef null)
  br i1 %123, label %124, label %128

124:                                              ; preds = %122, %120
  %125 = call i32 @errcode(i32 noundef 50856066)
  %126 = load i32, ptr %9, align 4
  %127 = call i32 (ptr, ...) @errmsg(ptr noundef @.str.6, ptr noundef @.str.12, i32 noundef %126)
  call void @errfinish(ptr noundef @.str.3, i32 noundef 1872, ptr noundef @__func__.regexp_substr)
  br label %128

128:                                              ; preds = %124, %122, %120
  unreachable

129:                                              ; No predecessors!
  br label %130

130:                                              ; preds = %129
  br label %131

131:                                              ; preds = %130, %109
  br label %132

132:                                              ; preds = %131, %103
  %133 = load ptr, ptr %8, align 8
  call void @parse_re_flags(ptr noundef %13, ptr noundef %133)
  %134 = getelementptr inbounds nuw %struct.pg_re_flags, ptr %13, i32 0, i32 1
  %135 = load i8, ptr %134, align 4, !range !6, !noundef !7
  %136 = trunc i8 %135 to i1
  br i1 %136, label %137, label %149

137:                                              ; preds = %132
  br label %138

138:                                              ; preds = %137
  br i1 true, label %139, label %141

139:                                              ; preds = %138
  %140 = call zeroext i1 @errstart_cold(i32 noundef 21, ptr noundef null) #10
  br i1 %140, label %143, label %146

141:                                              ; preds = %138
  %142 = call zeroext i1 @errstart(i32 noundef 21, ptr noundef null)
  br i1 %142, label %143, label %146

143:                                              ; preds = %141, %139
  %144 = call i32 @errcode(i32 noundef 50856066)
  %145 = call i32 (ptr, ...) @errmsg(ptr noundef @.str.9, ptr noundef @.str.19)
  call void @errfinish(ptr noundef @.str.3, i32 noundef 1883, ptr noundef @__func__.regexp_substr)
  br label %146

146:                                              ; preds = %143, %141, %139
  unreachable

147:                                              ; No predecessors!
  br label %148

148:                                              ; preds = %147
  br label %149

149:                                              ; preds = %148, %132
  %150 = getelementptr inbounds nuw %struct.pg_re_flags, ptr %13, i32 0, i32 1
  store i8 1, ptr %150, align 4
  %151 = load ptr, ptr %4, align 8
  %152 = load ptr, ptr %5, align 8
  %153 = load i32, ptr %6, align 4
  %154 = sub i32 %153, 1
  %155 = load ptr, ptr %3, align 8
  %156 = getelementptr inbounds nuw %struct.FunctionCallInfoBaseData, ptr %155, i32 0, i32 3
  %157 = load i32, ptr %156, align 8
  %158 = load i32, ptr %9, align 4
  %159 = icmp sgt i32 %158, 0
  %160 = call ptr @setup_regexp_matches(ptr noundef %151, ptr noundef %152, ptr noundef %13, i32 noundef %154, i32 noundef %157, i1 noundef zeroext %159, i1 noundef zeroext false, i1 noundef zeroext false)
  store ptr %160, ptr %14, align 8
  %161 = load i32, ptr %7, align 4
  %162 = load ptr, ptr %14, align 8
  %163 = getelementptr inbounds nuw %struct.regexp_matches_ctx, ptr %162, i32 0, i32 1
  %164 = load i32, ptr %163, align 8
  %165 = icmp sgt i32 %161, %164
  br i1 %165, label %166, label %172

166:                                              ; preds = %149
  br label %167

167:                                              ; preds = %166
  %168 = load ptr, ptr %3, align 8
  %169 = getelementptr inbounds nuw %struct.FunctionCallInfoBaseData, ptr %168, i32 0, i32 4
  store i8 1, ptr %169, align 4
  store i64 0, ptr %2, align 8
  store i32 1, ptr %15, align 4
  br label %240

170:                                              ; No predecessors!
  br label %171

171:                                              ; preds = %170
  br label %172

172:                                              ; preds = %171, %149
  %173 = load i32, ptr %9, align 4
  %174 = load ptr, ptr %14, align 8
  %175 = getelementptr inbounds nuw %struct.regexp_matches_ctx, ptr %174, i32 0, i32 2
  %176 = load i32, ptr %175, align 4
  %177 = icmp sgt i32 %173, %176
  br i1 %177, label %178, label %184

178:                                              ; preds = %172
  br label %179

179:                                              ; preds = %178
  %180 = load ptr, ptr %3, align 8
  %181 = getelementptr inbounds nuw %struct.FunctionCallInfoBaseData, ptr %180, i32 0, i32 4
  store i8 1, ptr %181, align 4
  store i64 0, ptr %2, align 8
  store i32 1, ptr %15, align 4
  br label %240

182:                                              ; No predecessors!
  br label %183

183:                                              ; preds = %182
  br label %184

184:                                              ; preds = %183, %172
  %185 = load i32, ptr %7, align 4
  %186 = sub i32 %185, 1
  %187 = load ptr, ptr %14, align 8
  %188 = getelementptr inbounds nuw %struct.regexp_matches_ctx, ptr %187, i32 0, i32 2
  %189 = load i32, ptr %188, align 4
  %190 = mul i32 %186, %189
  store i32 %190, ptr %12, align 4
  %191 = load i32, ptr %9, align 4
  %192 = icmp sgt i32 %191, 0
  br i1 %192, label %193, label %198

193:                                              ; preds = %184
  %194 = load i32, ptr %9, align 4
  %195 = sub i32 %194, 1
  %196 = load i32, ptr %12, align 4
  %197 = add i32 %196, %195
  store i32 %197, ptr %12, align 4
  br label %198

198:                                              ; preds = %193, %184
  %199 = load i32, ptr %12, align 4
  %200 = mul i32 %199, 2
  store i32 %200, ptr %12, align 4
  %201 = load ptr, ptr %14, align 8
  %202 = getelementptr inbounds nuw %struct.regexp_matches_ctx, ptr %201, i32 0, i32 3
  %203 = load ptr, ptr %202, align 8
  %204 = load i32, ptr %12, align 4
  %205 = sext i32 %204 to i64
  %206 = getelementptr inbounds i32, ptr %203, i64 %205
  %207 = load i32, ptr %206, align 4
  store i32 %207, ptr %10, align 4
  %208 = load ptr, ptr %14, align 8
  %209 = getelementptr inbounds nuw %struct.regexp_matches_ctx, ptr %208, i32 0, i32 3
  %210 = load ptr, ptr %209, align 8
  %211 = load i32, ptr %12, align 4
  %212 = add i32 %211, 1
  %213 = sext i32 %212 to i64
  %214 = getelementptr inbounds i32, ptr %210, i64 %213
  %215 = load i32, ptr %214, align 4
  store i32 %215, ptr %11, align 4
  %216 = load i32, ptr %10, align 4
  %217 = icmp slt i32 %216, 0
  br i1 %217, label %221, label %218

218:                                              ; preds = %198
  %219 = load i32, ptr %11, align 4
  %220 = icmp slt i32 %219, 0
  br i1 %220, label %221, label %227

221:                                              ; preds = %218, %198
  br label %222

222:                                              ; preds = %221
  %223 = load ptr, ptr %3, align 8
  %224 = getelementptr inbounds nuw %struct.FunctionCallInfoBaseData, ptr %223, i32 0, i32 4
  store i8 1, ptr %224, align 4
  store i64 0, ptr %2, align 8
  store i32 1, ptr %15, align 4
  br label %240

225:                                              ; No predecessors!
  br label %226

226:                                              ; preds = %225
  br label %227

227:                                              ; preds = %226, %218
  %228 = load ptr, ptr %14, align 8
  %229 = getelementptr inbounds nuw %struct.regexp_matches_ctx, ptr %228, i32 0, i32 0
  %230 = load ptr, ptr %229, align 8
  %231 = call i64 @PointerGetDatum(ptr noundef %230)
  %232 = load i32, ptr %10, align 4
  %233 = add i32 %232, 1
  %234 = call i64 @Int32GetDatum(i32 noundef %233)
  %235 = load i32, ptr %11, align 4
  %236 = load i32, ptr %10, align 4
  %237 = sub i32 %235, %236
  %238 = call i64 @Int32GetDatum(i32 noundef %237)
  %239 = call i64 @DirectFunctionCall3Coll(ptr noundef @text_substr, i32 noundef 0, i64 noundef %231, i64 noundef %234, i64 noundef %238)
  store i64 %239, ptr %2, align 8
  store i32 1, ptr %15, align 4
  br label %240

240:                                              ; preds = %227, %222, %179, %167
  call void @llvm.lifetime.end.p0(i64 8, ptr %14) #8
  call void @llvm.lifetime.end.p0(i64 8, ptr %13) #8
  call void @llvm.lifetime.end.p0(i64 4, ptr %12) #8
  call void @llvm.lifetime.end.p0(i64 4, ptr %11) #8
  call void @llvm.lifetime.end.p0(i64 4, ptr %10) #8
  call void @llvm.lifetime.end.p0(i64 4, ptr %9) #8
  call void @llvm.lifetime.end.p0(i64 8, ptr %8) #8
  call void @llvm.lifetime.end.p0(i64 4, ptr %7) #8
  call void @llvm.lifetime.end.p0(i64 4, ptr %6) #8
  call void @llvm.lifetime.end.p0(i64 8, ptr %5) #8
  call void @llvm.lifetime.end.p0(i64 8, ptr %4) #8
  %241 = load i64, ptr %2, align 8
  ret i64 %241
}