; Function Attrs: nounwind uwtable
define dso_local i64 @regexp_substr(ptr noundef captures(none) %0) local_unnamed_addr #0 {
  %2 = alloca %struct.pg_re_flags, align 4
  %3 = getelementptr inbounds nuw i8, ptr %0, i64 32
  %4 = load i64, ptr %3, align 8
  %5 = inttoptr i64 %4 to ptr
  %6 = tail call ptr @pg_detoast_datum_packed(ptr noundef %5) #9
  %7 = getelementptr inbounds nuw i8, ptr %0, i64 48
  %8 = load i64, ptr %7, align 8
  %9 = inttoptr i64 %8 to ptr
  %10 = tail call ptr @pg_detoast_datum_packed(ptr noundef %9) #9
  %11 = getelementptr inbounds nuw i8, ptr %0, i64 30
  %12 = load i16, ptr %11, align 2
  %13 = icmp sgt i16 %12, 4
  br i1 %13, label %14, label %19

14:                                               ; preds = %1
  %15 = getelementptr inbounds nuw i8, ptr %0, i64 96
  %16 = load i64, ptr %15, align 8
  %17 = inttoptr i64 %16 to ptr
  %18 = tail call ptr @pg_detoast_datum_packed(ptr noundef %17) #9
  %.pr = load i16, ptr %11, align 2
  br label %19

19:                                               ; preds = %1, %14
  %20 = phi i16 [ %12, %1 ], [ %.pr, %14 ]
  %21 = phi ptr [ null, %1 ], [ %18, %14 ]
  call void @llvm.lifetime.start.p0(i64 8, ptr nonnull %2) #9
  %22 = icmp sgt i16 %20, 2
  br i1 %22, label %23, label %.thread61

23:                                               ; preds = %19
  %24 = getelementptr inbounds nuw i8, ptr %0, i64 64
  %25 = load i64, ptr %24, align 8
  %26 = trunc i64 %25 to i32
  %27 = icmp slt i32 %26, 1
  br i1 %27, label %28, label %32

28:                                               ; preds = %23
  %29 = tail call zeroext i1 @errstart_cold(i32 noundef 21, ptr noundef null) #10
  tail call void @llvm.assume(i1 %29)
  %30 = tail call i32 @errcode(i32 noundef 50856066) #9
  %31 = tail call i32 (ptr, ...) @errmsg(ptr noundef nonnull @.str.6, ptr noundef nonnull @.str.7, i32 noundef %26) #9
  tail call void @errfinish(ptr noundef nonnull @.str.3, i32 noundef 1854, ptr noundef nonnull @__func__.regexp_substr) #9
  unreachable

32:                                               ; preds = %23
  %.not = icmp eq i16 %20, 3
  br i1 %.not, label %.thread61, label %33

33:                                               ; preds = %32
  %34 = getelementptr inbounds nuw i8, ptr %0, i64 80
  %35 = load i64, ptr %34, align 8
  %36 = trunc i64 %35 to i32
  %37 = icmp slt i32 %36, 1
  br i1 %37, label %38, label %42

38:                                               ; preds = %33
  %39 = tail call zeroext i1 @errstart_cold(i32 noundef 21, ptr noundef null) #10
  tail call void @llvm.assume(i1 %39)
  %40 = tail call i32 @errcode(i32 noundef 50856066) #9
  %41 = tail call i32 (ptr, ...) @errmsg(ptr noundef nonnull @.str.6, ptr noundef nonnull @.str.8, i32 noundef %36) #9
  tail call void @errfinish(ptr noundef nonnull @.str.3, i32 noundef 1863, ptr noundef nonnull @__func__.regexp_substr) #9
  unreachable

42:                                               ; preds = %33
  %43 = icmp samesign ugt i16 %20, 5
  br i1 %43, label %44, label %.thread61

44:                                               ; preds = %42
  %45 = getelementptr inbounds nuw i8, ptr %0, i64 112
  %46 = load i64, ptr %45, align 8
  %47 = trunc i64 %46 to i32
  %48 = icmp slt i32 %47, 0
  br i1 %48, label %49, label %.thread61

49:                                               ; preds = %44
  %50 = tail call zeroext i1 @errstart_cold(i32 noundef 21, ptr noundef null) #10
  tail call void @llvm.assume(i1 %50)
  %51 = tail call i32 @errcode(i32 noundef 50856066) #9
  %52 = tail call i32 (ptr, ...) @errmsg(ptr noundef nonnull @.str.6, ptr noundef nonnull @.str.12, i32 noundef %47) #9
  tail call void @errfinish(ptr noundef nonnull @.str.3, i32 noundef 1872, ptr noundef nonnull @__func__.regexp_substr) #9
  unreachable

.thread61:                                        ; preds = %19, %32, %44, %42
  %.04865 = phi i32 [ %36, %44 ], [ %36, %42 ], [ 1, %32 ], [ 1, %19 ]
  %.0476064 = phi i32 [ %26, %44 ], [ %26, %42 ], [ %26, %32 ], [ 1, %19 ]
  %.049 = phi i32 [ %47, %44 ], [ 0, %42 ], [ 0, %32 ], [ 0, %19 ]
  call fastcc void @parse_re_flags(ptr noundef %2, ptr noundef %21)
  %53 = getelementptr inbounds nuw i8, ptr %2, i64 4
  %54 = load i8, ptr %53, align 4, !range !7, !noundef !8
  %55 = trunc nuw i8 %54 to i1
  br i1 %55, label %56, label %60

56:                                               ; preds = %.thread61
  %57 = tail call zeroext i1 @errstart_cold(i32 noundef 21, ptr noundef null) #10
  tail call void @llvm.assume(i1 %57)
  %58 = tail call i32 @errcode(i32 noundef 50856066) #9
  %59 = tail call i32 (ptr, ...) @errmsg(ptr noundef nonnull @.str.9, ptr noundef nonnull @.str.19) #9
  tail call void @errfinish(ptr noundef nonnull @.str.3, i32 noundef 1883, ptr noundef nonnull @__func__.regexp_substr) #9
  unreachable

60:                                               ; preds = %.thread61
  %61 = add nsw i32 %.0476064, -1
  %62 = getelementptr inbounds nuw i8, ptr %0, i64 24
  %63 = load i32, ptr %62, align 8
  %64 = icmp ne i32 %.049, 0
  %.val = load i32, ptr %2, align 4
  %65 = tail call fastcc ptr @setup_regexp_matches(ptr noundef %6, ptr noundef %10, i32 %.val, i8 1, i32 noundef %61, i32 noundef %63, i1 noundef zeroext %64, i1 noundef zeroext false, i1 noundef zeroext false)
  %66 = getelementptr inbounds nuw i8, ptr %65, i64 8
  %67 = load i32, ptr %66, align 8
  %68 = icmp sgt i32 %.04865, %67
  br i1 %68, label %69, label %71

69:                                               ; preds = %60
  %70 = getelementptr inbounds nuw i8, ptr %0, i64 28
  store i8 1, ptr %70, align 4
  br label %103

71:                                               ; preds = %60
  %72 = getelementptr inbounds nuw i8, ptr %65, i64 12
  %73 = load i32, ptr %72, align 4
  %74 = icmp sgt i32 %.049, %73
  br i1 %74, label %75, label %77

75:                                               ; preds = %71
  %76 = getelementptr inbounds nuw i8, ptr %0, i64 28
  store i8 1, ptr %76, align 4
  br label %103

77:                                               ; preds = %71
  %78 = add nuw i32 %.04865, 2147483647
  %79 = mul i32 %73, %78
  %80 = tail call i32 @llvm.usub.sat.i32(i32 %.049, i32 1)
  %.046 = add i32 %79, %80
  %81 = shl i32 %.046, 1
  %82 = getelementptr inbounds nuw i8, ptr %65, i64 16
  %83 = load ptr, ptr %82, align 8
  %84 = sext i32 %81 to i64
  %85 = getelementptr inbounds i32, ptr %83, i64 %84
  %86 = load i32, ptr %85, align 4
  %87 = or disjoint i32 %81, 1
  %88 = sext i32 %87 to i64
  %89 = getelementptr inbounds i32, ptr %83, i64 %88
  %90 = load i32, ptr %89, align 4
  %91 = icmp slt i32 %86, 0
  %92 = icmp slt i32 %90, 0
  %or.cond = select i1 %91, i1 true, i1 %92
  br i1 %or.cond, label %93, label %95

93:                                               ; preds = %77
  %94 = getelementptr inbounds nuw i8, ptr %0, i64 28
  store i8 1, ptr %94, align 4
  br label %103

95:                                               ; preds = %77
  %96 = load ptr, ptr %65, align 8
  %97 = ptrtoint ptr %96 to i64
  %98 = add nuw i32 %86, 1
  %99 = sext i32 %98 to i64
  %100 = sub nsw i32 %90, %86
  %101 = sext i32 %100 to i64
  %102 = tail call i64 @DirectFunctionCall3Coll(ptr noundef nonnull @text_substr, i32 noundef 0, i64 noundef %97, i64 noundef %99, i64 noundef %101) #9
  br label %103

103:                                              ; preds = %95, %93, %75, %69
  %.0 = phi i64 [ 0, %69 ], [ 0, %75 ], [ 0, %93 ], [ %102, %95 ]
  call void @llvm.lifetime.end.p0(i64 8, ptr nonnull %2) #9
  ret i64 %.0
}